target datalayout = "e-m:e-p270:32:32-p271:32:32-p272:64:64-i64:64-i128:128-f80:128-n8:16:32:64-S128"
target triple = "x86_64-pc-linux-gnu"

%"struct.arrow::ArrayData" = type { %"class.std::shared_ptr", i64, %"struct.std::atomic", i64, %"class.std::vector", %"class.std::vector.0", %"class.std::shared_ptr.5", %"class.std::shared_ptr.8" }
%"class.std::shared_ptr" = type { %"class.std::__shared_ptr" }
%"class.std::__shared_ptr" = type { ptr, %"class.std::__shared_count" }
%"class.std::__shared_count" = type { ptr }
%"struct.std::atomic" = type { %"struct.std::__atomic_base" }
%"struct.std::__atomic_base" = type { i64 }
%"class.std::vector" = type { %"struct.std::_Vector_base" }
%"struct.std::_Vector_base" = type { %"struct.std::_Vector_base<std::shared_ptr<arrow::Buffer>, std::allocator<std::shared_ptr<arrow::Buffer>>>::_Vector_impl" }
%"struct.std::_Vector_base<std::shared_ptr<arrow::Buffer>, std::allocator<std::shared_ptr<arrow::Buffer>>>::_Vector_impl" = type { %"struct.std::_Vector_base<std::shared_ptr<arrow::Buffer>, std::allocator<std::shared_ptr<arrow::Buffer>>>::_Vector_impl_data" }
%"struct.std::_Vector_base<std::shared_ptr<arrow::Buffer>, std::allocator<std::shared_ptr<arrow::Buffer>>>::_Vector_impl_data" = type { ptr, ptr, ptr }
%"class.std::vector.0" = type { %"struct.std::_Vector_base.1" }
%"struct.std::_Vector_base.1" = type { %"struct.std::_Vector_base<std::shared_ptr<arrow::ArrayData>, std::allocator<std::shared_ptr<arrow::ArrayData>>>::_Vector_impl" }
%"struct.std::_Vector_base<std::shared_ptr<arrow::ArrayData>, std::allocator<std::shared_ptr<arrow::ArrayData>>>::_Vector_impl" = type { %"struct.std::_Vector_base<std::shared_ptr<arrow::ArrayData>, std::allocator<std::shared_ptr<arrow::ArrayData>>>::_Vector_impl_data" }
%"struct.std::_Vector_base<std::shared_ptr<arrow::ArrayData>, std::allocator<std::shared_ptr<arrow::ArrayData>>>::_Vector_impl_data" = type { ptr, ptr, ptr }
%"class.std::shared_ptr.5" = type { %"class.std::__shared_ptr.6" }
%"class.std::__shared_ptr.6" = type { ptr, %"class.std::__shared_count" }
%"class.std::shared_ptr.8" = type { %"class.std::__shared_ptr.9" }
%"class.std::__shared_ptr.9" = type { ptr, %"class.std::__shared_count" }
%"class.std::shared_ptr.11" = type { %"class.std::__shared_ptr.12" }
%"class.std::__shared_ptr.12" = type { ptr, %"class.std::__shared_count" }
%"class.arrow::Buffer" = type { ptr, i8, i8, ptr, i64, i64, i8, %"class.std::shared_ptr.11", %"class.std::shared_ptr.14" }
%"class.std::shared_ptr.14" = type { %"class.std::__shared_ptr.15" }
%"class.std::__shared_ptr.15" = type { ptr, %"class.std::__shared_count" }

; Function Attrs: mustprogress nounwind uwtable
define linkonce_odr noundef ptr @_ZNKSt12__shared_ptrIN5arrow6BufferELN9__gnu_cxx12_Lock_policyE2EE3getEv(ptr noundef nonnull align 8 dereferenceable(16) %0) #3 comdat align 2 {
  %2 = alloca ptr, align 8
  store ptr %0, ptr %2, align 8, !tbaa !167
  %3 = load ptr, ptr %2, align 8
  %4 = getelementptr inbounds nuw %"class.std::__shared_ptr.12", ptr %3, i32 0, i32 0
  %5 = load ptr, ptr %4, align 8, !tbaa !169
  ret ptr %5
}

; Function Attrs: mustprogress nounwind uwtable
define linkonce_odr noundef ptr @_ZNKSt19__shared_ptr_accessIN5arrow6BufferELN9__gnu_cxx12_Lock_policyE2ELb0ELb0EE6_M_getEv(ptr noundef nonnull align 1 dereferenceable(1) %0) #3 comdat align 2 {
  %2 = alloca ptr, align 8
  store ptr %0, ptr %2, align 8, !tbaa !50
  %3 = load ptr, ptr %2, align 8
  %4 = call noundef ptr @_ZNKSt12__shared_ptrIN5arrow6BufferELN9__gnu_cxx12_Lock_policyE2EE3getEv(ptr noundef nonnull align 8 dereferenceable(16) %3) #20
  ret ptr %4
}

; Function Attrs: noinline noreturn nounwind uwtable
define linkonce_odr hidden void @__clang_call_terminate(ptr noundef %0) #11 comdat {
  %2 = call ptr @__cxa_begin_catch(ptr %0) #20
  call void @_ZSt9terminatev() #21
  unreachable
}

; Function Attrs: mustprogress nounwind uwtable
define linkonce_odr noundef i32 @_ZStanSt12memory_orderSt23__memory_order_modifier(i32 noundef %0, i32 noundef %1) #3 comdat {
  %3 = alloca i32, align 4
  %4 = alloca i32, align 4
  store i32 %0, ptr %3, align 4, !tbaa !148
  store i32 %1, ptr %4, align 4, !tbaa !640
  %5 = load i32, ptr %3, align 4, !tbaa !148
  %6 = load i32, ptr %4, align 4, !tbaa !640
  %7 = and i32 %5, %6
  ret i32 %7
}

; Function Attrs: alwaysinline mustprogress nounwind uwtable
define linkonce_odr void @_ZNSt13__atomic_baseIlE5storeElSt12memory_order(ptr noundef nonnull align 8 dereferenceable(8) %0, i64 noundef %1, i32 noundef %2) #8 comdat align 2 {
  %4 = alloca ptr, align 8
  %5 = alloca i64, align 8
  %6 = alloca i32, align 4
  %7 = alloca i32, align 4
  %8 = alloca i64, align 8
  store ptr %0, ptr %4, align 8, !tbaa !146
  store i64 %1, ptr %5, align 8, !tbaa !8
  store i32 %2, ptr %6, align 4, !tbaa !148
  %9 = load ptr, ptr %4, align 8
  call void @llvm.lifetime.start.p0(i64 4, ptr %7) #20
  %10 = load i32, ptr %6, align 4, !tbaa !148
  %11 = call noundef i32 @_ZStanSt12memory_orderSt23__memory_order_modifier(i32 noundef %10, i32 noundef 65535)
  store i32 %11, ptr %7, align 4, !tbaa !148
  br label %12

12:                                               ; preds = %3
  br label %13

13:                                               ; preds = %12
  br label %14

14:                                               ; preds = %13
  br label %15

15:                                               ; preds = %14
  br label %16

16:                                               ; preds = %15
  br label %17

17:                                               ; preds = %16
  br label %18

18:                                               ; preds = %17
  br label %19

19:                                               ; preds = %18
  br label %20

20:                                               ; preds = %19
  %21 = getelementptr inbounds nuw %"struct.std::__atomic_base", ptr %9, i32 0, i32 0
  %22 = load i32, ptr %6, align 4, !tbaa !148
  %23 = load i64, ptr %5, align 8, !tbaa !8
  store i64 %23, ptr %8, align 8, !tbaa !8
  switch i32 %22, label %24 [
    i32 3, label %26
    i32 5, label %28
  ]

24:                                               ; preds = %20
  %25 = load i64, ptr %8, align 8
  store atomic i64 %25, ptr %21 monotonic, align 8
  br label %30

26:                                               ; preds = %20
  %27 = load i64, ptr %8, align 8
  store atomic i64 %27, ptr %21 release, align 8
  br label %30

28:                                               ; preds = %20
  %29 = load i64, ptr %8, align 8
  store atomic i64 %29, ptr %21 seq_cst, align 8
  br label %30

30:                                               ; preds = %28, %26, %24
  call void @llvm.lifetime.end.p0(i64 4, ptr %7) #20
  ret void
}

; Function Attrs: mustprogress nounwind uwtable
define linkonce_odr noundef ptr @_ZNK5arrow6Buffer4dataEv(ptr noundef nonnull align 8 dereferenceable(80) %0) #3 comdat align 2 {
  %2 = alloca ptr, align 8
  store ptr %0, ptr %2, align 8, !tbaa !52
  %3 = load ptr, ptr %2, align 8
  %4 = getelementptr inbounds nuw %"class.arrow::Buffer", ptr %3, i32 0, i32 2
  %5 = load i8, ptr %4, align 1, !tbaa !54, !range !63, !noundef !64
  %6 = trunc i8 %5 to i1
  %7 = xor i1 %6, true
  %8 = xor i1 %7, true
  %9 = zext i1 %8 to i64
  %10 = call i64 @llvm.expect.i64(i64 %9, i64 1)
  %11 = icmp ne i64 %10, 0
  br i1 %11, label %12, label %15

12:                                               ; preds = %1
  %13 = getelementptr inbounds nuw %"class.arrow::Buffer", ptr %3, i32 0, i32 3
  %14 = load ptr, ptr %13, align 8, !tbaa !65
  br label %16

15:                                               ; preds = %1
  br label %16

16:                                               ; preds = %15, %12
  %17 = phi ptr [ %14, %12 ], [ null, %15 ]
  ret ptr %17
}

; Function Attrs: mustprogress nounwind uwtable
define linkonce_odr noundef ptr @_ZNKSt19__shared_ptr_accessIN5arrow6BufferELN9__gnu_cxx12_Lock_policyE2ELb0ELb0EEptEv(ptr noundef nonnull align 1 dereferenceable(1) %0) #3 comdat align 2 {
  %2 = alloca ptr, align 8
  store ptr %0, ptr %2, align 8, !tbaa !50
  %3 = load ptr, ptr %2, align 8
  %4 = call noundef ptr @_ZNKSt19__shared_ptr_accessIN5arrow6BufferELN9__gnu_cxx12_Lock_policyE2ELb0ELb0EE6_M_getEv(ptr noundef nonnull align 1 dereferenceable(1) %3) #20
  ret ptr %4
}

; Function Attrs: mustprogress nounwind uwtable
define linkonce_odr noundef zeroext i1 @_ZNKSt12__shared_ptrIN5arrow6BufferELN9__gnu_cxx12_Lock_policyE2EEcvbEv(ptr noundef nonnull align 8 dereferenceable(16) %0) #3 comdat align 2 {
  %2 = alloca ptr, align 8
  store ptr %0, ptr %2, align 8, !tbaa !167
  %3 = load ptr, ptr %2, align 8
  %4 = getelementptr inbounds nuw %"class.std::__shared_ptr.12", ptr %3, i32 0, i32 0
  %5 = load ptr, ptr %4, align 8, !tbaa !169
  %6 = icmp ne ptr %5, null
  ret i1 %6
}

; Function Attrs: mustprogress nounwind uwtable
define linkonce_odr noundef nonnull align 8 dereferenceable(16) ptr @_ZNKSt6vectorISt10shared_ptrIN5arrow6BufferEESaIS3_EEixEm(ptr noundef nonnull align 8 dereferenceable(24) %0, i64 noundef %1) #3 comdat align 2 {
  %3 = alloca ptr, align 8
  %4 = alloca i64, align 8
  store ptr %0, ptr %3, align 8, !tbaa !47
  store i64 %1, ptr %4, align 8, !tbaa !8
  %5 = load ptr, ptr %3, align 8
  %6 = getelementptr inbounds nuw %"struct.std::_Vector_base", ptr %5, i32 0, i32 0
  %7 = getelementptr inbounds nuw %"struct.std::_Vector_base<std::shared_ptr<arrow::Buffer>, std::allocator<std::shared_ptr<arrow::Buffer>>>::_Vector_impl_data", ptr %6, i32 0, i32 0
  %8 = load ptr, ptr %7, align 8, !tbaa !49
  %9 = load i64, ptr %4, align 8, !tbaa !8
  %10 = getelementptr inbounds nuw %"class.std::shared_ptr.11", ptr %8, i64 %9
  ret ptr %10
}

; Function Attrs: alwaysinline mustprogress nounwind uwtable
define linkonce_odr noundef i64 @_ZNKSt13__atomic_baseIlE4loadESt12memory_order(ptr noundef nonnull align 8 dereferenceable(8) %0, i32 noundef %1) #8 comdat align 2 personality ptr @__gxx_personality_v0 {
  %3 = alloca ptr, align 8
  %4 = alloca i32, align 4
  %5 = alloca i32, align 4
  %6 = alloca i64, align 8
  store ptr %0, ptr %3, align 8, !tbaa !146
  store i32 %1, ptr %4, align 4, !tbaa !148
  %7 = load ptr, ptr %3, align 8
  call void @llvm.lifetime.start.p0(i64 4, ptr %5) #20
  %8 = load i32, ptr %4, align 4, !tbaa !148
  %9 = invoke noundef i32 @_ZStanSt12memory_orderSt23__memory_order_modifier(i32 noundef %8, i32 noundef 65535)
          to label %10 unwind label %27

10:                                               ; preds = %2
  store i32 %9, ptr %5, align 4, !tbaa !148
  br label %11

11:                                               ; preds = %10
  br label %12

12:                                               ; preds = %11
  br label %13

13:                                               ; preds = %12
  br label %14

14:                                               ; preds = %13
  br label %15

15:                                               ; preds = %14
  br label %16

16:                                               ; preds = %15
  %17 = getelementptr inbounds nuw %"struct.std::__atomic_base", ptr %7, i32 0, i32 0
  %18 = load i32, ptr %4, align 4, !tbaa !148
  switch i32 %18, label %19 [
    i32 1, label %21
    i32 2, label %21
    i32 5, label %23
  ]

19:                                               ; preds = %16
  %20 = load atomic i64, ptr %17 monotonic, align 8
  store i64 %20, ptr %6, align 8
  br label %25

21:                                               ; preds = %16, %16
  %22 = load atomic i64, ptr %17 acquire, align 8
  store i64 %22, ptr %6, align 8
  br label %25

23:                                               ; preds = %16
  %24 = load atomic i64, ptr %17 seq_cst, align 8
  store i64 %24, ptr %6, align 8
  br label %25

25:                                               ; preds = %23, %21, %19
  %26 = load i64, ptr %6, align 8, !tbaa !8
  call void @llvm.lifetime.end.p0(i64 4, ptr %5) #20
  ret i64 %26

27:                                               ; preds = %2
  %28 = landingpad { ptr, i32 }
          catch ptr null
  %29 = extractvalue { ptr, i32 } %28, 0
  call void @__clang_call_terminate(ptr %29) #21
  unreachable
}

; Function Attrs: mustprogress uwtable
define noundef i64 @_ZNK5arrow9ArrayData12GetNullCountEv(ptr noundef nonnull align 8 dereferenceable(120) %0) #0 align 2 {
  %2 = alloca ptr, align 8
  %3 = alloca i64, align 8
  store ptr %0, ptr %2, align 8, !tbaa !3
  %4 = load ptr, ptr %2, align 8
  call void @llvm.lifetime.start.p0(i64 8, ptr %3) #20
  %5 = getelementptr inbounds nuw %"struct.arrow::ArrayData", ptr %4, i32 0, i32 2
  %6 = call noundef i64 @_ZNKSt13__atomic_baseIlE4loadESt12memory_order(ptr noundef nonnull align 8 dereferenceable(8) %5, i32 noundef 5) #20
  store i64 %6, ptr %3, align 8, !tbaa !8
  %7 = load i64, ptr %3, align 8, !tbaa !8
  %8 = icmp eq i64 %7, -1
  %9 = xor i1 %8, true
  %10 = xor i1 %9, true
  %11 = zext i1 %10 to i64
  %12 = call i64 @llvm.expect.i64(i64 %11, i64 0)
  %13 = icmp ne i64 %12, 0
  br i1 %13, label %14, label %35

14:                                               ; preds = %1
  %15 = getelementptr inbounds nuw %"struct.arrow::ArrayData", ptr %4, i32 0, i32 4
  %16 = call noundef nonnull align 8 dereferenceable(16) ptr @_ZNKSt6vectorISt10shared_ptrIN5arrow6BufferEESaIS3_EEixEm(ptr noundef nonnull align 8 dereferenceable(24) %15, i64 noundef 0) #20
  %17 = call noundef zeroext i1 @_ZNKSt12__shared_ptrIN5arrow6BufferELN9__gnu_cxx12_Lock_policyE2EEcvbEv(ptr noundef nonnull align 8 dereferenceable(16) %16) #20
  br i1 %17, label %18, label %31

18:                                               ; preds = %14
  %19 = getelementptr inbounds nuw %"struct.arrow::ArrayData", ptr %4, i32 0, i32 1
  %20 = load i64, ptr %19, align 8, !tbaa !130
  %21 = getelementptr inbounds nuw %"struct.arrow::ArrayData", ptr %4, i32 0, i32 4
  %22 = call noundef nonnull align 8 dereferenceable(16) ptr @_ZNKSt6vectorISt10shared_ptrIN5arrow6BufferEESaIS3_EEixEm(ptr noundef nonnull align 8 dereferenceable(24) %21, i64 noundef 0) #20
  %23 = call noundef ptr @_ZNKSt19__shared_ptr_accessIN5arrow6BufferELN9__gnu_cxx12_Lock_policyE2ELb0ELb0EEptEv(ptr noundef nonnull align 1 dereferenceable(1) %22) #20
  %24 = call noundef ptr @_ZNK5arrow6Buffer4dataEv(ptr noundef nonnull align 8 dereferenceable(80) %23)
  %25 = getelementptr inbounds nuw %"struct.arrow::ArrayData", ptr %4, i32 0, i32 3
  %26 = load i64, ptr %25, align 8, !tbaa !16
  %27 = getelementptr inbounds nuw %"struct.arrow::ArrayData", ptr %4, i32 0, i32 1
  %28 = load i64, ptr %27, align 8, !tbaa !130
  %29 = call noundef i64 @_ZN5arrow8internal12CountSetBitsEPKhll(ptr noundef %24, i64 noundef %26, i64 noundef %28)
  %30 = sub nsw i64 %20, %29
  store i64 %30, ptr %3, align 8, !tbaa !8
  br label %32

31:                                               ; preds = %14
  store i64 0, ptr %3, align 8, !tbaa !8
  br label %32

32:                                               ; preds = %31, %18
  %33 = getelementptr inbounds nuw %"struct.arrow::ArrayData", ptr %4, i32 0, i32 2
  %34 = load i64, ptr %3, align 8, !tbaa !8
  call void @_ZNSt13__atomic_baseIlE5storeElSt12memory_order(ptr noundef nonnull align 8 dereferenceable(8) %33, i64 noundef %34, i32 noundef 5) #20
  br label %35

35:                                               ; preds = %32, %1
  %36 = load i64, ptr %3, align 8, !tbaa !8
  call void @llvm.lifetime.end.p0(i64 8, ptr %3) #20
  ret i64 %36
}