; Function Attrs: mustprogress uwtable
define noundef i64 @_ZNK5arrow9ArrayData12GetNullCountEv(ptr noundef nonnull align 8 captures(none) dereferenceable(120) %0) local_unnamed_addr #0 align 2 personality ptr @__gxx_personality_v0 {
  %2 = getelementptr inbounds nuw i8, ptr %0, i64 24
  %3 = load atomic i64, ptr %2 seq_cst, align 8
  %4 = icmp eq i64 %3, -1
  br i1 %4, label %5, label %23, !prof !89

5:                                                ; preds = %1
  %6 = getelementptr inbounds nuw i8, ptr %0, i64 40
  %7 = load ptr, ptr %6, align 8, !tbaa !11
  %8 = load ptr, ptr %7, align 8, !tbaa !14
  %.not = icmp eq ptr %8, null
  br i1 %.not, label %22, label %9

9:                                                ; preds = %5
  %10 = getelementptr inbounds nuw i8, ptr %0, i64 16
  %11 = load i64, ptr %10, align 8, !tbaa !105
  %12 = getelementptr inbounds nuw i8, ptr %8, i64 9
  %13 = load i8, ptr %12, align 1, !tbaa !17, !range !27, !noundef !28
  %14 = trunc nuw i8 %13 to i1
  %15 = getelementptr inbounds nuw i8, ptr %8, i64 16
  %16 = load ptr, ptr %15, align 8
  %17 = select i1 %14, ptr %16, ptr null, !prof !29
  %18 = getelementptr inbounds nuw i8, ptr %0, i64 32
  %19 = load i64, ptr %18, align 8, !tbaa !30
  %20 = tail call noundef i64 @_ZN5arrow8internal12CountSetBitsEPKhll(ptr noundef %17, i64 noundef %19, i64 noundef %11)
  %21 = sub nsw i64 %11, %20
  br label %22

22:                                               ; preds = %5, %9
  %.1 = phi i64 [ %21, %9 ], [ 0, %5 ]
  store atomic i64 %.1, ptr %2 seq_cst, align 8
  br label %23

23:                                               ; preds = %22, %1
  %.0 = phi i64 [ %.1, %22 ], [ %3, %1 ]
  ret i64 %.0
}